target datalayout = "e-m:e-p270:32:32-p271:32:32-p272:64:64-i64:64-i128:128-f80:128-n8:16:32:64-S128"
target triple = "x86_64-pc-linux-gnu"

@.str.14 = private unnamed_addr constant [27 x i8] c"../openssl/test/danetest.c\00", align 1
@read_to_eol.buf = internal global [4096 x i8] zeroinitializer, align 16
@.str.42 = private unnamed_addr constant [15 x i8] c"input too long\00", align 1
@.str.43 = private unnamed_addr constant [19 x i8] c"EOF before newline\00", align 1

; Function Attrs: nounwind uwtable
define internal ptr @read_to_eol(ptr noundef %0) #0 {
  %2 = alloca ptr, align 8
  %3 = alloca ptr, align 8
  %4 = alloca i32, align 4
  %5 = alloca i32, align 4
  store ptr %0, ptr %3, align 8, !tbaa !11
  call void @llvm.lifetime.start.p0(i64 4, ptr %4) #7
  %6 = load ptr, ptr %3, align 8, !tbaa !11
  %7 = call i32 @BIO_gets(ptr noundef %6, ptr noundef @read_to_eol.buf, i32 noundef 4096)
  %8 = icmp sle i32 %7, 0
  br i1 %8, label %9, label %10

9:                                                ; preds = %1
  store ptr null, ptr %2, align 8
  store i32 1, ptr %5, align 4
  br label %55

10:                                               ; preds = %1
  %11 = call i64 @strlen(ptr noundef @read_to_eol.buf) #8
  %12 = trunc i64 %11 to i32
  store i32 %12, ptr %4, align 4, !tbaa !13
  %13 = load i32, ptr %4, align 4, !tbaa !13
  %14 = sub nsw i32 %13, 1
  %15 = sext i32 %14 to i64
  %16 = getelementptr inbounds [4096 x i8], ptr @read_to_eol.buf, i64 0, i64 %15
  %17 = load i8, ptr %16, align 1, !tbaa !15
  %18 = sext i8 %17 to i32
  %19 = icmp ne i32 %18, 10
  br i1 %19, label %20, label %28

20:                                               ; preds = %10
  %21 = load i32, ptr %4, align 4, !tbaa !13
  %22 = add nsw i32 %21, 1
  %23 = sext i32 %22 to i64
  %24 = icmp eq i64 %23, 4096
  br i1 %24, label %25, label %26

25:                                               ; preds = %20
  call void (ptr, i32, ptr, ...) @test_error(ptr noundef @.str.14, i32 noundef 161, ptr noundef @.str.42)
  br label %27

26:                                               ; preds = %20
  call void (ptr, i32, ptr, ...) @test_error(ptr noundef @.str.14, i32 noundef 163, ptr noundef @.str.43)
  br label %27

27:                                               ; preds = %26, %25
  store ptr null, ptr %2, align 8
  store i32 1, ptr %5, align 4
  br label %55

28:                                               ; preds = %10
  br label %29

29:                                               ; preds = %49, %28
  %30 = load i32, ptr %4, align 4, !tbaa !13
  %31 = icmp sgt i32 %30, 0
  br i1 %31, label %32, label %47

32:                                               ; preds = %29
  %33 = call ptr @__ctype_b_loc() #9
  %34 = load ptr, ptr %33, align 8, !tbaa !23
  %35 = load i32, ptr %4, align 4, !tbaa !13
  %36 = sub nsw i32 %35, 1
  %37 = sext i32 %36 to i64
  %38 = getelementptr inbounds [4096 x i8], ptr @read_to_eol.buf, i64 0, i64 %37
  %39 = load i8, ptr %38, align 1, !tbaa !15
  %40 = zext i8 %39 to i32
  %41 = sext i32 %40 to i64
  %42 = getelementptr inbounds i16, ptr %34, i64 %41
  %43 = load i16, ptr %42, align 2, !tbaa !25
  %44 = zext i16 %43 to i32
  %45 = and i32 %44, 8192
  %46 = icmp ne i32 %45, 0
  br label %47

47:                                               ; preds = %32, %29
  %48 = phi i1 [ false, %29 ], [ %46, %32 ]
  br i1 %48, label %49, label %54

49:                                               ; preds = %47
  %50 = load i32, ptr %4, align 4, !tbaa !13
  %51 = add nsw i32 %50, -1
  store i32 %51, ptr %4, align 4, !tbaa !13
  %52 = sext i32 %51 to i64
  %53 = getelementptr inbounds [4096 x i8], ptr @read_to_eol.buf, i64 0, i64 %52
  store i8 0, ptr %53, align 1, !tbaa !15
  br label %29, !llvm.loop !27

54:                                               ; preds = %47
  store ptr @read_to_eol.buf, ptr %2, align 8
  store i32 1, ptr %5, align 4
  br label %55

55:                                               ; preds = %54, %27, %9
  call void @llvm.lifetime.end.p0(i64 4, ptr %4) #7
  %56 = load ptr, ptr %2, align 8
  ret ptr %56
}