; Function Attrs: nounwind uwtable
define internal fastcc noundef ptr @read_to_eol(ptr noundef %0) unnamed_addr #1 {
  %2 = tail call i32 @BIO_gets(ptr noundef %0, ptr noundef nonnull @read_to_eol.buf, i32 noundef 4096) #9
  %3 = icmp slt i32 %2, 1
  br i1 %3, label %.critedge, label %4

4:                                                ; preds = %1
  %5 = tail call i64 @strlen(ptr noundef nonnull dereferenceable(1) @read_to_eol.buf) #11
  %6 = shl i64 %5, 32
  %sext = add i64 %6, -4294967296
  %7 = ashr exact i64 %sext, 32
  %8 = getelementptr inbounds [4096 x i8], ptr @read_to_eol.buf, i64 0, i64 %7
  %9 = load i8, ptr %8, align 1, !tbaa !9
  %.not = icmp eq i8 %9, 10
  br i1 %.not, label %.preheader, label %14

.preheader:                                       ; preds = %4
  %10 = trunc i64 %5 to i32
  %11 = icmp sgt i32 %10, 0
  br i1 %11, label %.lr.ph, label %.critedge

.lr.ph:                                           ; preds = %.preheader
  %12 = tail call ptr @__ctype_b_loc() #10
  %13 = and i64 %5, 2147483647
  br label %18

14:                                               ; preds = %4
  %.mask = and i64 %5, 4294967295
  %15 = icmp eq i64 %.mask, 4095
  br i1 %15, label %16, label %17

16:                                               ; preds = %14
  tail call void (ptr, i32, ptr, ...) @test_error(ptr noundef nonnull @.str.14, i32 noundef 161, ptr noundef nonnull @.str.42) #9
  br label %.critedge

17:                                               ; preds = %14
  tail call void (ptr, i32, ptr, ...) @test_error(ptr noundef nonnull @.str.14, i32 noundef 163, ptr noundef nonnull @.str.43) #9
  br label %.critedge

18:                                               ; preds = %.lr.ph, %26
  %indvars.iv = phi i64 [ %13, %.lr.ph ], [ %indvars.iv.next, %26 ]
  %19 = load ptr, ptr %12, align 8, !tbaa !14
  %indvars.iv.next = add nsw i64 %indvars.iv, -1
  %20 = getelementptr inbounds nuw [4096 x i8], ptr @read_to_eol.buf, i64 0, i64 %indvars.iv.next
  %21 = load i8, ptr %20, align 1, !tbaa !9
  %22 = zext i8 %21 to i64
  %23 = getelementptr inbounds nuw i16, ptr %19, i64 %22
  %24 = load i16, ptr %23, align 2, !tbaa !16
  %25 = and i16 %24, 8192
  %.not7 = icmp eq i16 %25, 0
  br i1 %.not7, label %.critedge, label %26

26:                                               ; preds = %18
  store i8 0, ptr %20, align 1, !tbaa !9
  %27 = icmp samesign ugt i64 %indvars.iv, 1
  br i1 %27, label %18, label %.critedge, !llvm.loop !29

.critedge:                                        ; preds = %26, %18, %.preheader, %16, %17, %1
  %.06 = phi ptr [ null, %1 ], [ null, %17 ], [ null, %16 ], [ @read_to_eol.buf, %.preheader ], [ @read_to_eol.buf, %18 ], [ @read_to_eol.buf, %26 ]
  ret ptr %.06
}